(lp0
ccopy_reg
_reconstructor
p1
(ctankshapes.hull
hull_shape
p2
c__builtin__
object
p3
Ntp4
Rp5
(dp6
S'layer'
p7
I0
sS'hover'
p8
I00
sS'position'
p9
(I-20
I-40
tp10
sS'type'
p11
I2
sS'anchor'
p12
(I20
I40
tp13
sS'size'
p14
(I40
I80
tp15
sbag1
(ctankshapes.gun
gun_shape
p16
g3
Ntp17
Rp18
(dp19
g9
(I-14
I-38
tp20
sg7
I1
sg11
I4
sg12
(I4
I28
tp21
sg14
(I8
I32
tp22
sbag1
(g16
g3
Ntp23
Rp24
(dp25
g9
(I6
I-38
tp26
sg7
I1
sg11
I4
sg12
g21
sg14
g22
sba.